target datalayout = "e-m:e-p270:32:32-p271:32:32-p272:64:64-i64:64-i128:128-f80:128-n8:16:32:64-S128"
target triple = "x86_64-pc-linux-gnu"

%struct._proto_node = type { ptr, ptr, ptr, ptr, ptr, ptr, ptr }
%struct.field_info = type { ptr, i32, i32, i32, i32, i32, i32, ptr, ptr, ptr, i32, i32 }
%struct._item_label_t = type { [240 x i8], i64, i64 }
%struct._header_field_info = type { ptr, ptr, i32, i32, ptr, i64, ptr, i32, i32, i32, i32, ptr }

@hf_text_only = external global i32, align 4
@.str.60 = private unnamed_addr constant [1 x i8] zeroinitializer, align 1

; Function Attrs: nounwind null_pointer_is_valid sspstrong uwtable
define internal ptr @proto_node_to_json_key(ptr noundef %0) #7 {
  %2 = alloca ptr, align 8
  %3 = alloca ptr, align 8
  store ptr %0, ptr %2, align 8
  call void @llvm.lifetime.start.p0(i64 8, ptr %3) #15
  %4 = load ptr, ptr %2, align 8
  %5 = getelementptr inbounds nuw %struct._proto_node, ptr %4, i32 0, i32 5
  %6 = load ptr, ptr %5, align 8
  %7 = getelementptr inbounds nuw %struct.field_info, ptr %6, i32 0, i32 0
  %8 = load ptr, ptr %7, align 8
  %9 = getelementptr inbounds nuw %struct._header_field_info, ptr %8, i32 0, i32 7
  %10 = load i32, ptr %9, align 8
  %11 = load i32, ptr @hf_text_only, align 4
  %12 = icmp ne i32 %10, %11
  br i1 %12, label %13, label %21

13:                                               ; preds = %1
  %14 = load ptr, ptr %2, align 8
  %15 = getelementptr inbounds nuw %struct._proto_node, ptr %14, i32 0, i32 5
  %16 = load ptr, ptr %15, align 8
  %17 = getelementptr inbounds nuw %struct.field_info, ptr %16, i32 0, i32 0
  %18 = load ptr, ptr %17, align 8
  %19 = getelementptr inbounds nuw %struct._header_field_info, ptr %18, i32 0, i32 1
  %20 = load ptr, ptr %19, align 8
  store ptr %20, ptr %3, align 8
  br label %38

21:                                               ; preds = %1
  %22 = load ptr, ptr %2, align 8
  %23 = getelementptr inbounds nuw %struct._proto_node, ptr %22, i32 0, i32 5
  %24 = load ptr, ptr %23, align 8
  %25 = getelementptr inbounds nuw %struct.field_info, ptr %24, i32 0, i32 7
  %26 = load ptr, ptr %25, align 8
  %27 = icmp ne ptr %26, null
  br i1 %27, label %28, label %36

28:                                               ; preds = %21
  %29 = load ptr, ptr %2, align 8
  %30 = getelementptr inbounds nuw %struct._proto_node, ptr %29, i32 0, i32 5
  %31 = load ptr, ptr %30, align 8
  %32 = getelementptr inbounds nuw %struct.field_info, ptr %31, i32 0, i32 7
  %33 = load ptr, ptr %32, align 8
  %34 = getelementptr inbounds nuw %struct._item_label_t, ptr %33, i32 0, i32 0
  %35 = getelementptr inbounds [240 x i8], ptr %34, i64 0, i64 0
  store ptr %35, ptr %3, align 8
  br label %37

36:                                               ; preds = %21
  store ptr @.str.60, ptr %3, align 8
  br label %37

37:                                               ; preds = %36, %28
  br label %38

38:                                               ; preds = %37, %13
  %39 = load ptr, ptr %3, align 8
  call void @llvm.lifetime.end.p0(i64 8, ptr %3) #15
  ret ptr %39
}

; Function Attrs: null_pointer_is_valid sspstrong uwtable
define ptr @proto_node_group_children_by_json_key(ptr noundef %0) #0 {
  %2 = alloca ptr, align 8
  %3 = alloca ptr, align 8
  %4 = alloca ptr, align 8
  %5 = alloca ptr, align 8
  %6 = alloca ptr, align 8
  %7 = alloca ptr, align 8
  store ptr %0, ptr %2, align 8
  call void @llvm.lifetime.start.p0(i64 8, ptr %3) #15
  store ptr null, ptr %3, align 8
  call void @llvm.lifetime.start.p0(i64 8, ptr %4) #15
  %8 = call ptr @g_hash_table_new(ptr noundef @g_str_hash, ptr noundef @g_str_equal)
  store ptr %8, ptr %4, align 8
  call void @llvm.lifetime.start.p0(i64 8, ptr %5) #15
  %9 = load ptr, ptr %2, align 8
  %10 = getelementptr inbounds nuw %struct._proto_node, ptr %9, i32 0, i32 0
  %11 = load ptr, ptr %10, align 8
  store ptr %11, ptr %5, align 8
  br label %12

12:                                               ; preds = %42, %1
  %13 = load ptr, ptr %5, align 8
  %14 = icmp ne ptr %13, null
  br i1 %14, label %15, label %46

15:                                               ; preds = %12
  call void @llvm.lifetime.start.p0(i64 8, ptr %6) #15
  %16 = load ptr, ptr %5, align 8
  %17 = call ptr @proto_node_to_json_key(ptr noundef %16)
  store ptr %17, ptr %6, align 8
  call void @llvm.lifetime.start.p0(i64 8, ptr %7) #15
  %18 = load ptr, ptr %4, align 8
  %19 = load ptr, ptr %6, align 8
  %20 = call ptr @g_hash_table_lookup(ptr noundef %18, ptr noundef %19)
  store ptr %20, ptr %7, align 8
  %21 = load ptr, ptr %7, align 8
  %22 = icmp eq ptr %21, null
  br i1 %22, label %23, label %34

23:                                               ; preds = %15
  %24 = load ptr, ptr %7, align 8
  %25 = load ptr, ptr %5, align 8
  %26 = call ptr @g_slist_append(ptr noundef %24, ptr noundef %25)
  store ptr %26, ptr %7, align 8
  %27 = load ptr, ptr %3, align 8
  %28 = load ptr, ptr %7, align 8
  %29 = call ptr @g_slist_prepend(ptr noundef %27, ptr noundef %28)
  store ptr %29, ptr %3, align 8
  %30 = load ptr, ptr %4, align 8
  %31 = load ptr, ptr %6, align 8
  %32 = load ptr, ptr %7, align 8
  %33 = call i32 @g_hash_table_insert(ptr noundef %30, ptr noundef %31, ptr noundef %32)
  br label %42

34:                                               ; preds = %15
  %35 = load ptr, ptr %7, align 8
  %36 = load ptr, ptr %5, align 8
  %37 = call ptr @g_slist_append(ptr noundef %35, ptr noundef %36)
  store ptr %37, ptr %7, align 8
  %38 = load ptr, ptr %4, align 8
  %39 = load ptr, ptr %6, align 8
  %40 = load ptr, ptr %7, align 8
  %41 = call i32 @g_hash_table_insert(ptr noundef %38, ptr noundef %39, ptr noundef %40)
  br label %42

42:                                               ; preds = %34, %23
  %43 = load ptr, ptr %5, align 8
  %44 = getelementptr inbounds nuw %struct._proto_node, ptr %43, i32 0, i32 2
  %45 = load ptr, ptr %44, align 8
  store ptr %45, ptr %5, align 8
  call void @llvm.lifetime.end.p0(i64 8, ptr %7) #15
  call void @llvm.lifetime.end.p0(i64 8, ptr %6) #15
  br label %12, !llvm.loop !23

46:                                               ; preds = %12
  %47 = load ptr, ptr %4, align 8
  call void @g_hash_table_destroy(ptr noundef %47)
  %48 = load ptr, ptr %3, align 8
  %49 = call ptr @g_slist_reverse(ptr noundef %48)
  call void @llvm.lifetime.end.p0(i64 8, ptr %5) #15
  call void @llvm.lifetime.end.p0(i64 8, ptr %4) #15
  call void @llvm.lifetime.end.p0(i64 8, ptr %3) #15
  ret ptr %49
}