; Function Attrs: null_pointer_is_valid sspstrong uwtable
define ptr @proto_node_group_children_by_json_key(ptr noundef readonly captures(none) %0) local_unnamed_addr #0 {
  %2 = tail call ptr @g_hash_table_new(ptr noundef nonnull @g_str_hash, ptr noundef nonnull @g_str_equal)
  %.02124 = load ptr, ptr %0, align 8
  %.not25 = icmp eq ptr %.02124, null
  br i1 %.not25, label %._crit_edge, label %.lr.ph

.lr.ph:                                           ; preds = %1, %21
  %.02127 = phi ptr [ %.021, %21 ], [ %.02124, %1 ]
  %.026 = phi ptr [ %.1, %21 ], [ null, %1 ]
  %3 = getelementptr i8, ptr %.02127, i64 40
  %.021.val = load ptr, ptr %3, align 8
  %4 = load ptr, ptr %.021.val, align 8
  %5 = getelementptr inbounds nuw i8, ptr %4, i64 48
  %6 = load i32, ptr %5, align 8
  %7 = load i32, ptr @hf_text_only, align 4
  %.not.i = icmp eq i32 %6, %7
  br i1 %.not.i, label %11, label %8

8:                                                ; preds = %.lr.ph
  %9 = getelementptr inbounds nuw i8, ptr %4, i64 8
  %10 = load ptr, ptr %9, align 8
  br label %proto_node_to_json_key.exit

11:                                               ; preds = %.lr.ph
  %12 = getelementptr inbounds nuw i8, ptr %.021.val, i64 32
  %13 = load ptr, ptr %12, align 8
  %.not6.i = icmp eq ptr %13, null
  %.str.60..i = select i1 %.not6.i, ptr @.str.60, ptr %13
  br label %proto_node_to_json_key.exit

proto_node_to_json_key.exit:                      ; preds = %8, %11
  %.0.i = phi ptr [ %10, %8 ], [ %.str.60..i, %11 ]
  %14 = tail call ptr @g_hash_table_lookup(ptr noundef %2, ptr noundef %.0.i)
  %15 = icmp eq ptr %14, null
  br i1 %15, label %16, label %19

16:                                               ; preds = %proto_node_to_json_key.exit
  %17 = tail call ptr @g_slist_append(ptr noundef null, ptr noundef nonnull %.02127)
  %18 = tail call ptr @g_slist_prepend(ptr noundef %.026, ptr noundef %17)
  br label %21

19:                                               ; preds = %proto_node_to_json_key.exit
  %20 = tail call ptr @g_slist_append(ptr noundef nonnull %14, ptr noundef nonnull %.02127)
  br label %21

21:                                               ; preds = %19, %16
  %.sink = phi ptr [ %20, %19 ], [ %17, %16 ]
  %.1 = phi ptr [ %.026, %19 ], [ %18, %16 ]
  %22 = tail call i32 @g_hash_table_insert(ptr noundef %2, ptr noundef %.0.i, ptr noundef %.sink)
  %23 = getelementptr inbounds nuw i8, ptr %.02127, i64 16
  %.021 = load ptr, ptr %23, align 8
  %.not = icmp eq ptr %.021, null
  br i1 %.not, label %._crit_edge, label %.lr.ph, !llvm.loop !24

._crit_edge:                                      ; preds = %21, %1
  %.0.lcssa = phi ptr [ null, %1 ], [ %.1, %21 ]
  tail call void @g_hash_table_destroy(ptr noundef %2)
  %24 = tail call ptr @g_slist_reverse(ptr noundef %.0.lcssa)
  ret ptr %24
}